target datalayout = "e-m:e-p270:32:32-p271:32:32-p272:64:64-i64:64-i128:128-f80:128-n8:16:32:64-S128"
target triple = "x86_64-pc-linux-gnu"

%struct.DAUDIO_Info = type { ptr, i32, i32, i32, i32, i32, i32, ptr, i32 }

; Function Attrs: nounwind uwtable
define void @Java_com_sun_media_sound_DirectAudioDevice_nStart(ptr noundef %0, ptr noundef %1, i64 noundef %2, i8 noundef zeroext %3) #0 {
  %5 = alloca ptr, align 8
  %6 = alloca ptr, align 8
  %7 = alloca i64, align 8
  %8 = alloca i8, align 1
  %9 = alloca ptr, align 8
  store ptr %0, ptr %5, align 8
  store ptr %1, ptr %6, align 8
  store i64 %2, ptr %7, align 8
  store i8 %3, ptr %8, align 1
  %10 = load i64, ptr %7, align 8
  %11 = inttoptr i64 %10 to ptr
  store ptr %11, ptr %9, align 8
  %12 = load ptr, ptr %9, align 8
  %13 = icmp ne ptr %12, null
  br i1 %13, label %14, label %26

14:                                               ; preds = %4
  %15 = load ptr, ptr %9, align 8
  %16 = getelementptr inbounds %struct.DAUDIO_Info, ptr %15, i32 0, i32 0
  %17 = load ptr, ptr %16, align 8
  %18 = icmp ne ptr %17, null
  br i1 %18, label %19, label %26

19:                                               ; preds = %14
  %20 = load ptr, ptr %9, align 8
  %21 = getelementptr inbounds %struct.DAUDIO_Info, ptr %20, i32 0, i32 0
  %22 = load ptr, ptr %21, align 8
  %23 = load i8, ptr %8, align 1
  %24 = zext i8 %23 to i32
  %25 = call i32 @DAUDIO_Start(ptr noundef %22, i32 noundef %24)
  br label %26

26:                                               ; preds = %19, %14, %4
  ret void
}